target datalayout = "e-m:e-p270:32:32-p271:32:32-p272:64:64-i64:64-i128:128-f80:128-n8:16:32:64-S128"
target triple = "x86_64-pc-linux-gnu"

; Function Attrs: mustprogress nounwind uwtable
define hidden noundef zeroext i1 @_ZN19OpenColorIO_v2_5dev11Lut3DOpData20IsValidInterpolationENS_13InterpolationE(i32 noundef %0) #5 align 2 {
  %2 = alloca i1, align 1
  %3 = alloca i32, align 4
  store i32 %0, ptr %3, align 4, !tbaa !59
  %4 = load i32, ptr %3, align 4, !tbaa !59
  switch i32 %4, label %7 [
    i32 255, label %5
    i32 3, label %5
    i32 254, label %5
    i32 2, label %5
    i32 1, label %5
    i32 4, label %6
    i32 0, label %6
  ]

5:                                                ; preds = %1, %1, %1, %1, %1
  store i1 true, ptr %2, align 1
  br label %8

6:                                                ; preds = %1, %1
  br label %7

7:                                                ; preds = %1, %6
  store i1 false, ptr %2, align 1
  br label %8

8:                                                ; preds = %7, %5
  %9 = load i1, ptr %2, align 1
  ret i1 %9
}