; Function Attrs: mustprogress nofree norecurse nosync nounwind willreturn memory(none) uwtable
define hidden noundef zeroext i1 @_ZN19OpenColorIO_v2_5dev11Lut3DOpData20IsValidInterpolationENS_13InterpolationE(i32 noundef %0) local_unnamed_addr #12 align 2 {
  switch i32 %0, label %2 [
    i32 255, label %3
    i32 3, label %3
    i32 254, label %3
    i32 2, label %3
    i32 1, label %3
  ]

2:                                                ; preds = %1
  br label %3

3:                                                ; preds = %1, %1, %1, %1, %1, %2
  %.0 = phi i1 [ false, %2 ], [ true, %1 ], [ true, %1 ], [ true, %1 ], [ true, %1 ], [ true, %1 ]
  ret i1 %.0
}